target datalayout = "e-m:e-p270:32:32-p271:32:32-p272:64:64-i64:64-i128:128-f80:128-n8:16:32:64-S128"
target triple = "x86_64-unknown-linux-gnu"

%"class.std::shared_ptr" = type { %"class.std::__shared_ptr" }
%"class.std::__shared_ptr" = type { ptr, %"class.std::__shared_count" }
%"class.std::__shared_count" = type { ptr }
%"struct.absl::container_internal::internal_compressed_tuple::Storage" = type { %"class.absl::container_internal::CommonFields" }
%"class.absl::container_internal::CommonFields" = type { ptr, ptr, i64, i64 }
%"class.absl::container_internal::HashtablezInfoHandle" = type { i8 }
%"class.absl::container_internal::(anonymous namespace)::CheckedAlloc.136" = type { i64, %"class.std::shared_ptr" }
%"class.absl::container_internal::raw_hash_set.137" = type { %"class.absl::container_internal::CompressedTuple.138" }
%"class.absl::container_internal::CompressedTuple.138" = type { %"struct.absl::container_internal::internal_compressed_tuple::CompressedTupleImpl.139" }
%"struct.absl::container_internal::internal_compressed_tuple::CompressedTupleImpl.139" = type { %"struct.absl::container_internal::internal_compressed_tuple::Storage", %"struct.absl::container_internal::internal_compressed_tuple::Storage.140" }
%"struct.absl::container_internal::internal_compressed_tuple::Storage.140" = type { %"class.absl::container_internal::(anonymous namespace)::CheckedAlloc.136" }

; Function Attrs: mustprogress nounwind uwtable
define linkonce_odr dso_local noundef i64 @_ZN4absl18container_internal14NumClonedBytesEv() #5 comdat {
entry:
  ret i64 15
}

; Function Attrs: mustprogress nounwind uwtable
define linkonce_odr dso_local noundef i64 @_ZN4absl18container_internal18NumGenerationBytesEv() #5 comdat {
entry:
  ret i64 0
}

; Function Attrs: mustprogress uwtable
define linkonce_odr dso_local noundef i64 @_ZN4absl18container_internal16GenerationOffsetEmb(i64 noundef %capacity, i1 noundef zeroext %has_infoz) #4 comdat {
entry:
  %capacity.addr = alloca i64, align 8
  %has_infoz.addr = alloca i8, align 1
  %num_control_bytes = alloca i64, align 8
  store i64 %capacity, ptr %capacity.addr, align 8
  %frombool = zext i1 %has_infoz to i8
  store i8 %frombool, ptr %has_infoz.addr, align 1
  %0 = load i64, ptr %capacity.addr, align 8
  %add = add i64 %0, 1
  %call = call noundef i64 @_ZN4absl18container_internal14NumClonedBytesEv()
  %add1 = add i64 %add, %call
  store i64 %add1, ptr %num_control_bytes, align 8
  %1 = load i8, ptr %has_infoz.addr, align 1
  %tobool = trunc i8 %1 to i1
  %call2 = call noundef i64 @_ZN4absl18container_internal13ControlOffsetEb(i1 noundef zeroext %tobool)
  %2 = load i64, ptr %num_control_bytes, align 8
  %add3 = add i64 %call2, %2
  ret i64 %add3
}

; Function Attrs: mustprogress nounwind uwtable
define linkonce_odr dso_local noundef i64 @_ZN4absl18container_internal12CommonFields13HasInfozShiftEv() #5 comdat align 2 {
entry:
  ret i64 1
}

; Function Attrs: mustprogress uwtable
define linkonce_odr dso_local noundef i64 @_ZN4absl18container_internal10SlotOffsetEmmb(i64 noundef %capacity, i64 noundef %slot_align, i1 noundef zeroext %has_infoz) #4 comdat {
entry:
  %capacity.addr = alloca i64, align 8
  %slot_align.addr = alloca i64, align 8
  %has_infoz.addr = alloca i8, align 1
  store i64 %capacity, ptr %capacity.addr, align 8
  store i64 %slot_align, ptr %slot_align.addr, align 8
  %frombool = zext i1 %has_infoz to i8
  store i8 %frombool, ptr %has_infoz.addr, align 1
  %0 = load i64, ptr %capacity.addr, align 8
  %1 = load i8, ptr %has_infoz.addr, align 1
  %tobool = trunc i8 %1 to i1
  %call = call noundef i64 @_ZN4absl18container_internal16GenerationOffsetEmb(i64 noundef %0, i1 noundef zeroext %tobool)
  %call1 = call noundef i64 @_ZN4absl18container_internal18NumGenerationBytesEv()
  %add = add i64 %call, %call1
  %2 = load i64, ptr %slot_align.addr, align 8
  %add2 = add i64 %add, %2
  %sub = sub i64 %add2, 1
  %3 = load i64, ptr %slot_align.addr, align 8
  %not = xor i64 %3, -1
  %add3 = add i64 %not, 1
  %and = and i64 %sub, %add3
  ret i64 %and
}

; Function Attrs: mustprogress nounwind uwtable
define internal noundef nonnull align 8 dereferenceable(24) ptr @_ZNR4absl18container_internal25internal_compressed_tuple7StorageINS0_12_GLOBAL__N_112CheckedAllocINS0_7TrackedIiEELi5EEELm3ELb0EE3getEv(ptr noundef nonnull align 8 dereferenceable(24) %this) #5 align 2 {
entry:
  %this.addr = alloca ptr, align 8
  store ptr %this, ptr %this.addr, align 8
  %this1 = load ptr, ptr %this.addr, align 8
  %value = getelementptr inbounds %"struct.absl::container_internal::internal_compressed_tuple::Storage.140", ptr %this1, i32 0, i32 0
  ret ptr %value
}

; Function Attrs: mustprogress uwtable
define linkonce_odr dso_local noundef i64 @_ZN4absl18container_internal12CommonFields12HasInfozMaskEv() #4 comdat align 2 {
entry:
  %call = call noundef i64 @_ZN4absl18container_internal12CommonFields13HasInfozShiftEv()
  %shl = shl i64 1, %call
  %sub = sub i64 %shl, 1
  ret i64 %sub
}

; Function Attrs: mustprogress uwtable
define linkonce_odr dso_local noundef i64 @_ZN4absl18container_internal9AllocSizeEmmmb(i64 noundef %capacity, i64 noundef %slot_size, i64 noundef %slot_align, i1 noundef zeroext %has_infoz) #4 comdat {
entry:
  %capacity.addr = alloca i64, align 8
  %slot_size.addr = alloca i64, align 8
  %slot_align.addr = alloca i64, align 8
  %has_infoz.addr = alloca i8, align 1
  store i64 %capacity, ptr %capacity.addr, align 8
  store i64 %slot_size, ptr %slot_size.addr, align 8
  store i64 %slot_align, ptr %slot_align.addr, align 8
  %frombool = zext i1 %has_infoz to i8
  store i8 %frombool, ptr %has_infoz.addr, align 1
  %0 = load i64, ptr %capacity.addr, align 8
  %1 = load i64, ptr %slot_align.addr, align 8
  %2 = load i8, ptr %has_infoz.addr, align 1
  %tobool = trunc i8 %2 to i1
  %call = call noundef i64 @_ZN4absl18container_internal10SlotOffsetEmmb(i64 noundef %0, i64 noundef %1, i1 noundef zeroext %tobool)
  %3 = load i64, ptr %capacity.addr, align 8
  %4 = load i64, ptr %slot_size.addr, align 8
  %mul = mul i64 %3, %4
  %add = add i64 %call, %mul
  ret i64 %add
}

; Function Attrs: mustprogress nounwind uwtable
define linkonce_odr dso_local noundef i64 @_ZN4absl18container_internal13ControlOffsetEb(i1 noundef zeroext %has_infoz) #5 comdat {
entry:
  %has_infoz.addr = alloca i8, align 1
  %frombool = zext i1 %has_infoz to i8
  store i8 %frombool, ptr %has_infoz.addr, align 1
  %0 = load i8, ptr %has_infoz.addr, align 1
  %tobool = trunc i8 %0 to i1
  %cond = select i1 %tobool, i64 1, i64 0
  %add = add i64 %cond, 8
  ret i64 %add
}

; Function Attrs: mustprogress nounwind uwtable
define linkonce_odr dso_local noundef ptr @_ZNK4absl18container_internal12CommonFields7controlEv(ptr noundef nonnull align 8 dereferenceable(32) %this) #5 comdat align 2 {
entry:
  %this.addr = alloca ptr, align 8
  store ptr %this, ptr %this.addr, align 8
  %this1 = load ptr, ptr %this.addr, align 8
  %control_ = getelementptr inbounds %"class.absl::container_internal::CommonFields", ptr %this1, i32 0, i32 0
  %0 = load ptr, ptr %control_, align 8
  ret ptr %0
}

; Function Attrs: mustprogress uwtable
define internal noundef nonnull align 8 dereferenceable(24) ptr @_ZNR4absl18container_internal15CompressedTupleIJNS0_12CommonFieldsENS0_12_GLOBAL__N_18IdentityESt8equal_toIiENS3_12CheckedAllocINS0_7TrackedIiEELi5EEEEE3getILi3EEERNS0_25internal_compressed_tuple4ElemISB_XT_EE4typeEv(ptr noundef nonnull align 8 dereferenceable(56) %this) #4 align 2 {
entry:
  %this.addr = alloca ptr, align 8
  store ptr %this, ptr %this.addr, align 8
  %this1 = load ptr, ptr %this.addr, align 8
  %add.ptr = getelementptr inbounds i8, ptr %this1, i64 32
  %call = call noundef nonnull align 8 dereferenceable(24) ptr @_ZNR4absl18container_internal25internal_compressed_tuple7StorageINS0_12_GLOBAL__N_112CheckedAllocINS0_7TrackedIiEELi5EEELm3ELb0EE3getEv(ptr noundef nonnull align 8 dereferenceable(24) %add.ptr)
  ret ptr %call
}

; Function Attrs: mustprogress uwtable
define linkonce_odr dso_local noundef zeroext i1 @_ZNK4absl18container_internal12CommonFields9has_infozEv(ptr noundef nonnull align 8 dereferenceable(32) %this) #4 comdat align 2 {
entry:
  %this.addr = alloca ptr, align 8
  store ptr %this, ptr %this.addr, align 8
  %this1 = load ptr, ptr %this.addr, align 8
  %size_ = getelementptr inbounds %"class.absl::container_internal::CommonFields", ptr %this1, i32 0, i32 3
  %0 = load i64, ptr %size_, align 8
  %call = call noundef i64 @_ZN4absl18container_internal12CommonFields12HasInfozMaskEv()
  %and = and i64 %0, %call
  %cmp = icmp ne i64 %and, 0
  ret i1 %cmp
}

; Function Attrs: mustprogress uwtable
define linkonce_odr dso_local noundef i64 @_ZNK4absl18container_internal12CommonFields10alloc_sizeEmm(ptr noundef nonnull align 8 dereferenceable(32) %this, i64 noundef %slot_size, i64 noundef %slot_align) #4 comdat align 2 {
entry:
  %this.addr = alloca ptr, align 8
  %slot_size.addr = alloca i64, align 8
  %slot_align.addr = alloca i64, align 8
  store ptr %this, ptr %this.addr, align 8
  store i64 %slot_size, ptr %slot_size.addr, align 8
  store i64 %slot_align, ptr %slot_align.addr, align 8
  %this1 = load ptr, ptr %this.addr, align 8
  %call = call noundef i64 @_ZNK4absl18container_internal12CommonFields8capacityEv(ptr noundef nonnull align 8 dereferenceable(32) %this1)
  %0 = load i64, ptr %slot_size.addr, align 8
  %1 = load i64, ptr %slot_align.addr, align 8
  %call2 = call noundef zeroext i1 @_ZNK4absl18container_internal12CommonFields9has_infozEv(ptr noundef nonnull align 8 dereferenceable(32) %this1)
  %call3 = call noundef i64 @_ZN4absl18container_internal9AllocSizeEmmmb(i64 noundef %call, i64 noundef %0, i64 noundef %1, i1 noundef zeroext %call2)
  ret i64 %call3
}

; Function Attrs: mustprogress uwtable
define linkonce_odr dso_local noundef ptr @_ZNK4absl18container_internal12CommonFields19backing_array_startEv(ptr noundef nonnull align 8 dereferenceable(32) %this) #4 comdat align 2 {
entry:
  %this.addr = alloca ptr, align 8
  store ptr %this, ptr %this.addr, align 8
  %this1 = load ptr, ptr %this.addr, align 8
  %call = call noundef ptr @_ZNK4absl18container_internal12CommonFields7controlEv(ptr noundef nonnull align 8 dereferenceable(32) %this1)
  %call2 = call noundef zeroext i1 @_ZNK4absl18container_internal12CommonFields9has_infozEv(ptr noundef nonnull align 8 dereferenceable(32) %this1)
  %call3 = call noundef i64 @_ZN4absl18container_internal13ControlOffsetEb(i1 noundef zeroext %call2)
  %idx.neg = sub i64 0, %call3
  %add.ptr = getelementptr inbounds i8, ptr %call, i64 %idx.neg
  ret ptr %add.ptr
}

; Function Attrs: mustprogress uwtable
define internal noundef nonnull align 8 dereferenceable(24) ptr @_ZN4absl18container_internal12raw_hash_setINS0_12_GLOBAL__N_16PolicyENS2_8IdentityESt8equal_toIiENS2_12CheckedAllocINS0_7TrackedIiEELi5EEEE9alloc_refEv(ptr noundef nonnull align 8 dereferenceable(56) %this) #4 align 2 {
entry:
  %this.addr = alloca ptr, align 8
  store ptr %this, ptr %this.addr, align 8
  %this1 = load ptr, ptr %this.addr, align 8
  %settings_ = getelementptr inbounds %"class.absl::container_internal::raw_hash_set.137", ptr %this1, i32 0, i32 0
  %call = call noundef nonnull align 8 dereferenceable(24) ptr @_ZNR4absl18container_internal15CompressedTupleIJNS0_12CommonFieldsENS0_12_GLOBAL__N_18IdentityESt8equal_toIiENS3_12CheckedAllocINS0_7TrackedIiEELi5EEEEE3getILi3EEERNS0_25internal_compressed_tuple4ElemISB_XT_EE4typeEv(ptr noundef nonnull align 8 dereferenceable(56) %settings_)
  ret ptr %call
}

; Function Attrs: mustprogress nounwind uwtable
define linkonce_odr dso_local void @_ZN4absl18container_internal20HashtablezInfoHandle10UnregisterEv(ptr noundef nonnull align 1 dereferenceable(1) %this) #5 comdat align 2 {
entry:
  %this.addr = alloca ptr, align 8
  store ptr %this, ptr %this.addr, align 8
  ret void
}

; Function Attrs: mustprogress uwtable
define linkonce_odr dso_local void @_ZN4absl18container_internal12CommonFields5infozEv(ptr noundef nonnull align 8 dereferenceable(32) %this) #4 comdat align 2 {
entry:
  %this.addr = alloca ptr, align 8
  store ptr %this, ptr %this.addr, align 8
  %this1 = load ptr, ptr %this.addr, align 8
  %call = call noundef zeroext i1 @_ZNK4absl18container_internal12CommonFields9has_infozEv(ptr noundef nonnull align 8 dereferenceable(32) %this1)
  br i1 %call, label %cond.true, label %cond.false

cond.true:                                        ; preds = %entry
  %call2 = call noundef ptr @_ZNK4absl18container_internal12CommonFields19backing_array_startEv(ptr noundef nonnull align 8 dereferenceable(32) %this1)
  br label %cond.end

cond.false:                                       ; preds = %entry
  br label %cond.end

cond.end:                                         ; preds = %cond.false, %cond.true
  ret void
}

; Function Attrs: mustprogress nounwind uwtable
define linkonce_odr dso_local void @_ZN4absl18container_internal29SanitizerUnpoisonMemoryRegionEPKvm(ptr noundef %m, i64 noundef %s) #5 comdat {
entry:
  %m.addr = alloca ptr, align 8
  %s.addr = alloca i64, align 8
  store ptr %m, ptr %m.addr, align 8
  store i64 %s, ptr %s.addr, align 8
  ret void
}

; Function Attrs: mustprogress nounwind uwtable
define linkonce_odr dso_local noundef i64 @_ZNK4absl18container_internal12CommonFields8capacityEv(ptr noundef nonnull align 8 dereferenceable(32) %this) #5 comdat align 2 {
entry:
  %this.addr = alloca ptr, align 8
  store ptr %this, ptr %this.addr, align 8
  %this1 = load ptr, ptr %this.addr, align 8
  %capacity_ = getelementptr inbounds %"class.absl::container_internal::CommonFields", ptr %this1, i32 0, i32 2
  %0 = load i64, ptr %capacity_, align 8
  ret i64 %0
}

; Function Attrs: mustprogress nounwind uwtable
define linkonce_odr dso_local noundef ptr @_ZNK4absl18container_internal12CommonFields10slot_arrayEv(ptr noundef nonnull align 8 dereferenceable(32) %this) #5 comdat align 2 {
entry:
  %this.addr = alloca ptr, align 8
  store ptr %this, ptr %this.addr, align 8
  %this1 = load ptr, ptr %this.addr, align 8
  %slots_ = getelementptr inbounds %"class.absl::container_internal::CommonFields", ptr %this1, i32 0, i32 1
  %0 = load ptr, ptr %slots_, align 8
  ret ptr %0
}

; Function Attrs: mustprogress uwtable
define internal void @_ZN4absl18container_internal12raw_hash_setINS0_12_GLOBAL__N_16PolicyENS2_8IdentityESt8equal_toIiENS2_12CheckedAllocINS0_7TrackedIiEELi5EEEE10dealloc_fnERNS0_12CommonFieldsERKNS0_15PolicyFunctionsE(ptr noundef nonnull align 8 dereferenceable(32) %common, ptr noundef nonnull align 8 dereferenceable(32) %0) #4 align 2 {
entry:
  %common.addr = alloca ptr, align 8
  %.addr = alloca ptr, align 8
  %set = alloca ptr, align 8
  %ref.tmp = alloca %"class.absl::container_internal::HashtablezInfoHandle", align 1
  store ptr %common, ptr %common.addr, align 8
  store ptr %0, ptr %.addr, align 8
  %1 = load ptr, ptr %common.addr, align 8
  store ptr %1, ptr %set, align 8
  %2 = load ptr, ptr %common.addr, align 8
  %call = call noundef ptr @_ZNK4absl18container_internal12CommonFields10slot_arrayEv(ptr noundef nonnull align 8 dereferenceable(32) %2)
  %3 = load ptr, ptr %common.addr, align 8
  %call1 = call noundef i64 @_ZNK4absl18container_internal12CommonFields8capacityEv(ptr noundef nonnull align 8 dereferenceable(32) %3)
  %mul = mul i64 40, %call1
  call void @_ZN4absl18container_internal29SanitizerUnpoisonMemoryRegionEPKvm(ptr noundef %call, i64 noundef %mul)
  %4 = load ptr, ptr %common.addr, align 8
  call void @_ZN4absl18container_internal12CommonFields5infozEv(ptr noundef nonnull align 8 dereferenceable(32) %4)
  call void @_ZN4absl18container_internal20HashtablezInfoHandle10UnregisterEv(ptr noundef nonnull align 1 dereferenceable(1) %ref.tmp)
  %5 = load ptr, ptr %set, align 8
  %call2 = call noundef nonnull align 8 dereferenceable(24) ptr @_ZN4absl18container_internal12raw_hash_setINS0_12_GLOBAL__N_16PolicyENS2_8IdentityESt8equal_toIiENS2_12CheckedAllocINS0_7TrackedIiEELi5EEEE9alloc_refEv(ptr noundef nonnull align 8 dereferenceable(56) %5)
  %6 = load ptr, ptr %common.addr, align 8
  %call3 = call noundef ptr @_ZNK4absl18container_internal12CommonFields19backing_array_startEv(ptr noundef nonnull align 8 dereferenceable(32) %6)
  %7 = load ptr, ptr %common.addr, align 8
  %call4 = call noundef i64 @_ZNK4absl18container_internal12CommonFields10alloc_sizeEmm(ptr noundef nonnull align 8 dereferenceable(32) %7, i64 noundef 40, i64 noundef 8)
  call void @_ZN4absl18container_internal10DeallocateILm8ENS0_12_GLOBAL__N_112CheckedAllocINS0_7TrackedIiEELi5EEEEEvPT0_Pvm(ptr noundef %call2, ptr noundef %call3, i64 noundef %call4)
  ret void
}